target datalayout = "e-m:e-p270:32:32-p271:32:32-p272:64:64-i64:64-i128:128-f80:128-n8:16:32:64-S128"
target triple = "x86_64-unknown-linux-gnu"

%"struct.icu_75::UniProps" = type { i32, i32, [75 x i8], [25 x i32], [4 x i8], i32, i32, i32, i32, i32, i32, i32, ptr, ptr, ptr, %"class.icu_75::UnicodeString", %"class.icu_75::UnicodeString", %"class.icu_75::UnicodeString", %"class.icu_75::UnicodeString", %"class.icu_75::UnicodeSet" }
%"class.icu_75::UnicodeString" = type { %"class.icu_75::Replaceable", %"union.icu_75::UnicodeString::StackBufferOrFields" }
%"class.icu_75::Replaceable" = type { %"class.icu_75::UObject" }
%"class.icu_75::UObject" = type { ptr }
%"union.icu_75::UnicodeString::StackBufferOrFields" = type { %struct.anon.0, [32 x i8] }
%struct.anon.0 = type { i16, i32, i32, ptr }
%"class.icu_75::UnicodeSet" = type <{ %"class.icu_75::UnicodeFilter", ptr, i32, i32, i8, [7 x i8], ptr, ptr, i32, [4 x i8], ptr, i32, [4 x i8], ptr, ptr, [25 x i32], [4 x i8] }>
%"class.icu_75::UnicodeFilter" = type { %"class.icu_75::UnicodeFunctor", %"class.icu_75::UnicodeMatcher" }
%"class.icu_75::UnicodeFunctor" = type { %"class.icu_75::UObject" }
%"class.icu_75::UnicodeMatcher" = type { ptr }
%"class.icu_75::PreparsedUCD" = type { ptr, ptr, i32, i32, i32, i32, i32, ptr, ptr, [4 x i8], %"struct.icu_75::UniProps", %"struct.icu_75::UniProps", %"struct.icu_75::UniProps", %"class.icu_75::UnicodeSet", [3 x [4096 x i8]] }

@stdin = external global ptr, align 8
@_ZN6icu_758UniPropsD1Ev = unnamed_addr alias void (ptr), ptr @_ZN6icu_758UniPropsD2Ev

; Function Attrs: noreturn nounwind uwtable
define linkonce_odr hidden void @__clang_call_terminate(ptr noundef %0) #2 comdat {
  %2 = call ptr @__cxa_begin_catch(ptr %0) #10
  call void @_ZSt9terminatev() #12
  unreachable
}

; Function Attrs: mustprogress nounwind uwtable
define void @_ZN6icu_7512PreparsedUCDD2Ev(ptr noundef nonnull align 8 dereferenceable(14640) %this) unnamed_addr #0 align 2 personality ptr @__gxx_personality_v0 {
entry:
  %this.addr = alloca ptr, align 8
  store ptr %this, ptr %this.addr, align 8
  %this1 = load ptr, ptr %this.addr, align 8
  %file = getelementptr inbounds %"class.icu_75::PreparsedUCD", ptr %this1, i32 0, i32 1
  %0 = load ptr, ptr %file, align 8
  %1 = load ptr, ptr @stdin, align 8
  %cmp = icmp ne ptr %0, %1
  br i1 %cmp, label %if.then, label %if.end

if.then:                                          ; preds = %entry
  %file2 = getelementptr inbounds %"class.icu_75::PreparsedUCD", ptr %this1, i32 0, i32 1
  %2 = load ptr, ptr %file2, align 8
  %call = invoke i32 @fclose(ptr noundef %2)
          to label %invoke.cont unwind label %terminate.lpad

invoke.cont:                                      ; preds = %if.then
  br label %if.end

if.end:                                           ; preds = %invoke.cont, %entry
  %blockValues = getelementptr inbounds %"class.icu_75::PreparsedUCD", ptr %this1, i32 0, i32 13
  call void @_ZN6icu_7510UnicodeSetD1Ev(ptr noundef nonnull align 8 dereferenceable(200) %blockValues) #10
  %cpProps = getelementptr inbounds %"class.icu_75::PreparsedUCD", ptr %this1, i32 0, i32 12
  call void @_ZN6icu_758UniPropsD1Ev(ptr noundef nonnull align 8 dereferenceable(696) %cpProps) #10
  %blockProps = getelementptr inbounds %"class.icu_75::PreparsedUCD", ptr %this1, i32 0, i32 11
  call void @_ZN6icu_758UniPropsD1Ev(ptr noundef nonnull align 8 dereferenceable(696) %blockProps) #10
  %defaultProps = getelementptr inbounds %"class.icu_75::PreparsedUCD", ptr %this1, i32 0, i32 10
  call void @_ZN6icu_758UniPropsD1Ev(ptr noundef nonnull align 8 dereferenceable(696) %defaultProps) #10
  ret void

terminate.lpad:                                   ; preds = %if.then
  %3 = landingpad { ptr, i32 }
          catch ptr null
  %4 = extractvalue { ptr, i32 } %3, 0
  call void @__clang_call_terminate(ptr %4) #12
  unreachable
}