; Function Attrs: mustprogress nounwind uwtable
define void @_ZN6icu_7512PreparsedUCDD2Ev(ptr noundef nonnull align 8 dereferenceable(14640) %this) unnamed_addr #0 align 2 personality ptr @__gxx_personality_v0 {
entry:
  %file = getelementptr inbounds i8, ptr %this, i64 8
  %0 = load ptr, ptr %file, align 8
  %1 = load ptr, ptr @stdin, align 8
  %cmp.not = icmp eq ptr %0, %1
  br i1 %cmp.not, label %if.end, label %if.then

if.then:                                          ; preds = %entry
  %call = tail call i32 @fclose(ptr noundef %0)
  br label %if.end

if.end:                                           ; preds = %if.then, %entry
  %blockValues = getelementptr inbounds i8, ptr %this, i64 2152
  tail call void @_ZN6icu_7510UnicodeSetD1Ev(ptr noundef nonnull align 8 dereferenceable(200) %blockValues) #21
  %cpProps = getelementptr inbounds i8, ptr %this, i64 1456
  tail call void @_ZN6icu_758UniPropsD1Ev(ptr noundef nonnull align 8 dereferenceable(696) %cpProps) #21
  %blockProps = getelementptr inbounds i8, ptr %this, i64 760
  tail call void @_ZN6icu_758UniPropsD1Ev(ptr noundef nonnull align 8 dereferenceable(696) %blockProps) #21
  %defaultProps = getelementptr inbounds i8, ptr %this, i64 64
  tail call void @_ZN6icu_758UniPropsD1Ev(ptr noundef nonnull align 8 dereferenceable(696) %defaultProps) #21
  ret void
}